target datalayout = "e-m:e-p270:32:32-p271:32:32-p272:64:64-i64:64-i128:128-f80:128-n8:16:32:64-S128"
target triple = "x86_64-unknown-linux-gnu"

%struct.UString = type { ptr, i32, i32 }

@.str.36 = private unnamed_addr constant [64 x i8] c"invariant characters required for table keys, binary data, etc.\00", align 1

; Function Attrs: mustprogress nounwind uwtable
define internal noundef signext i8 @_ZL9U_FAILURE10UErrorCode(i32 noundef %code) #0 {
entry:
  %code.addr = alloca i32, align 4
  store i32 %code, ptr %code.addr, align 4
  %0 = load i32, ptr %code.addr, align 4
  %cmp = icmp sgt i32 %0, 0
  %conv = zext i1 %cmp to i8
  ret i8 %conv
}

; Function Attrs: mustprogress uwtable
define internal noundef ptr @_ZL18getInvariantStringP10ParseStatePjP7UStringRiP10UErrorCode(ptr noundef %state, ptr noundef %line, ptr noundef %comment, ptr noundef nonnull align 4 dereferenceable(4) %stringLength, ptr noundef %status) #1 {
entry:
  %retval = alloca ptr, align 8
  %state.addr = alloca ptr, align 8
  %line.addr = alloca ptr, align 8
  %comment.addr = alloca ptr, align 8
  %stringLength.addr = alloca ptr, align 8
  %status.addr = alloca ptr, align 8
  %tokenValue = alloca ptr, align 8
  %result = alloca ptr, align 8
  store ptr %state, ptr %state.addr, align 8
  store ptr %line, ptr %line.addr, align 8
  store ptr %comment, ptr %comment.addr, align 8
  store ptr %stringLength, ptr %stringLength.addr, align 8
  store ptr %status, ptr %status.addr, align 8
  %0 = load ptr, ptr %state.addr, align 8
  %1 = load ptr, ptr %comment.addr, align 8
  %2 = load ptr, ptr %line.addr, align 8
  %3 = load ptr, ptr %status.addr, align 8
  call void @_ZL6expectP10ParseState10ETokenTypePP7UStringS3_PjP10UErrorCode(ptr noundef %0, i32 noundef 0, ptr noundef %tokenValue, ptr noundef %1, ptr noundef %2, ptr noundef %3)
  %4 = load ptr, ptr %status.addr, align 8
  %5 = load i32, ptr %4, align 4
  %call = call noundef signext i8 @_ZL9U_FAILURE10UErrorCode(i32 noundef %5)
  %tobool = icmp ne i8 %call, 0
  br i1 %tobool, label %if.then, label %if.end

if.then:                                          ; preds = %entry
  store ptr null, ptr %retval, align 8
  br label %return

if.end:                                           ; preds = %entry
  %6 = load ptr, ptr %tokenValue, align 8
  %fChars = getelementptr inbounds %struct.UString, ptr %6, i32 0, i32 0
  %7 = load ptr, ptr %fChars, align 8
  %8 = load ptr, ptr %tokenValue, align 8
  %fLength = getelementptr inbounds %struct.UString, ptr %8, i32 0, i32 1
  %9 = load i32, ptr %fLength, align 8
  %call1 = call signext i8 @uprv_isInvariantUString_75(ptr noundef %7, i32 noundef %9)
  %tobool2 = icmp ne i8 %call1, 0
  br i1 %tobool2, label %if.end4, label %if.then3

if.then3:                                         ; preds = %if.end
  %10 = load ptr, ptr %status.addr, align 8
  store i32 3, ptr %10, align 4
  %11 = load ptr, ptr %line.addr, align 8
  %12 = load i32, ptr %11, align 4
  call void (i32, ptr, ...) @error(i32 noundef %12, ptr noundef @.str.36)
  store ptr null, ptr %retval, align 8
  br label %return

if.end4:                                          ; preds = %if.end
  %13 = load ptr, ptr %tokenValue, align 8
  %fLength5 = getelementptr inbounds %struct.UString, ptr %13, i32 0, i32 1
  %14 = load i32, ptr %fLength5, align 8
  %add = add nsw i32 %14, 1
  %conv = sext i32 %add to i64
  %call6 = call noalias ptr @uprv_malloc_75(i64 noundef %conv) #13
  store ptr %call6, ptr %result, align 8
  %15 = load ptr, ptr %result, align 8
  %cmp = icmp eq ptr %15, null
  br i1 %cmp, label %if.then7, label %if.end8

if.then7:                                         ; preds = %if.end4
  %16 = load ptr, ptr %status.addr, align 8
  store i32 7, ptr %16, align 4
  store ptr null, ptr %retval, align 8
  br label %return

if.end8:                                          ; preds = %if.end4
  %17 = load ptr, ptr %tokenValue, align 8
  %fChars9 = getelementptr inbounds %struct.UString, ptr %17, i32 0, i32 0
  %18 = load ptr, ptr %fChars9, align 8
  %19 = load ptr, ptr %result, align 8
  %20 = load ptr, ptr %tokenValue, align 8
  %fLength10 = getelementptr inbounds %struct.UString, ptr %20, i32 0, i32 1
  %21 = load i32, ptr %fLength10, align 8
  %add11 = add nsw i32 %21, 1
  call void @u_UCharsToChars_75(ptr noundef %18, ptr noundef %19, i32 noundef %add11)
  %22 = load ptr, ptr %tokenValue, align 8
  %fLength12 = getelementptr inbounds %struct.UString, ptr %22, i32 0, i32 1
  %23 = load i32, ptr %fLength12, align 8
  %24 = load ptr, ptr %stringLength.addr, align 8
  store i32 %23, ptr %24, align 4
  %25 = load ptr, ptr %result, align 8
  store ptr %25, ptr %retval, align 8
  br label %return

return:                                           ; preds = %if.end8, %if.then7, %if.then3, %if.then
  %26 = load ptr, ptr %retval, align 8
  ret ptr %26
}