; Function Attrs: mustprogress uwtable
define internal fastcc noundef ptr @_ZL18getInvariantStringP10ParseStatePjP7UStringRiP10UErrorCode(ptr noundef %state, ptr noundef %line, ptr nocapture noundef nonnull writeonly align 4 dereferenceable(4) %stringLength, ptr noundef %status) unnamed_addr #1 {
entry:
  %tokenValue = alloca ptr, align 8
  call fastcc void @_ZL6expectP10ParseState10ETokenTypePP7UStringS3_PjP10UErrorCode(ptr noundef %state, i32 noundef 0, ptr noundef nonnull %tokenValue, ptr noundef null, ptr noundef %line, ptr noundef %status)
  %0 = load i32, ptr %status, align 4
  %cmp.i = icmp slt i32 %0, 1
  br i1 %cmp.i, label %if.end, label %return

if.end:                                           ; preds = %entry
  %1 = load ptr, ptr %tokenValue, align 8
  %2 = load ptr, ptr %1, align 8
  %fLength = getelementptr inbounds i8, ptr %1, i64 8
  %3 = load i32, ptr %fLength, align 8
  %call1 = call signext i8 @uprv_isInvariantUString_75(ptr noundef %2, i32 noundef %3)
  %tobool2.not = icmp eq i8 %call1, 0
  br i1 %tobool2.not, label %if.then3, label %if.end4

if.then3:                                         ; preds = %if.end
  store i32 3, ptr %status, align 4
  %4 = load i32, ptr %line, align 4
  call void (i32, ptr, ...) @error(i32 noundef %4, ptr noundef nonnull @.str.36)
  br label %return

if.end4:                                          ; preds = %if.end
  %5 = load ptr, ptr %tokenValue, align 8
  %fLength5 = getelementptr inbounds i8, ptr %5, i64 8
  %6 = load i32, ptr %fLength5, align 8
  %add = add nsw i32 %6, 1
  %conv = sext i32 %add to i64
  %call6 = call noalias ptr @uprv_malloc_75(i64 noundef %conv) #20
  %cmp = icmp eq ptr %call6, null
  br i1 %cmp, label %if.then7, label %if.end8

if.then7:                                         ; preds = %if.end4
  store i32 7, ptr %status, align 4
  br label %return

if.end8:                                          ; preds = %if.end4
  %7 = load ptr, ptr %tokenValue, align 8
  %8 = load ptr, ptr %7, align 8
  %fLength10 = getelementptr inbounds i8, ptr %7, i64 8
  %9 = load i32, ptr %fLength10, align 8
  %add11 = add nsw i32 %9, 1
  call void @u_UCharsToChars_75(ptr noundef %8, ptr noundef nonnull %call6, i32 noundef %add11)
  %10 = load ptr, ptr %tokenValue, align 8
  %fLength12 = getelementptr inbounds i8, ptr %10, i64 8
  %11 = load i32, ptr %fLength12, align 8
  store i32 %11, ptr %stringLength, align 4
  br label %return

return:                                           ; preds = %entry, %if.end8, %if.then7, %if.then3
  %retval.0 = phi ptr [ null, %if.then7 ], [ %call6, %if.end8 ], [ null, %if.then3 ], [ null, %entry ]
  ret ptr %retval.0
}